; Function Attrs: mustprogress nofree norecurse nosync nounwind willreturn memory(argmem: write) uwtable
define void @_ZN6google8protobuf2io15FileInputStream22CopyingFileInputStreamC2Ei(ptr nocapture noundef nonnull writeonly align 8 dereferenceable(21) %0, i32 noundef %1) unnamed_addr #4 align 2 {
  store ptr getelementptr inbounds inrange(-16, 32) (i8, ptr @_ZTVN6google8protobuf2io15FileInputStream22CopyingFileInputStreamE, i64 16), ptr %0, align 8
  %3 = getelementptr inbounds i8, ptr %0, i64 8
  store i32 %1, ptr %3, align 8
  %4 = getelementptr inbounds i8, ptr %0, i64 12
  store i8 0, ptr %4, align 4
  %5 = getelementptr inbounds i8, ptr %0, i64 13
  store i8 0, ptr %5, align 1
  %6 = getelementptr inbounds i8, ptr %0, i64 16
  store i32 0, ptr %6, align 8
  %7 = getelementptr inbounds i8, ptr %0, i64 20
  store i8 0, ptr %7, align 4
  ret void
}